target datalayout = "e-m:e-p270:32:32-p271:32:32-p272:64:64-i64:64-i128:128-f80:128-n8:16:32:64-S128"
target triple = "x86_64-unknown-linux-gnu"

%"class.boost::detail::shared_count" = type { ptr }
%"class.QuantLib::EuropeanMultiPathPricer" = type { %"class.QuantLib::PathPricer", %"class.boost::shared_ptr.23", double }
%"class.QuantLib::PathPricer" = type { ptr }
%"class.boost::shared_ptr.23" = type { ptr, %"class.boost::detail::shared_count" }

; Function Attrs: mustprogress nounwind uwtable
define linkonce_odr void @_ZN5boost6detail12shared_countC2EOS1_(ptr noundef nonnull align 8 dereferenceable(8) %this, ptr noundef nonnull align 8 dereferenceable(8) %r) unnamed_addr #5 comdat align 2 {
entry:
  %this.addr = alloca ptr, align 8
  %r.addr = alloca ptr, align 8
  store ptr %this, ptr %this.addr, align 8, !tbaa !3
  store ptr %r, ptr %r.addr, align 8, !tbaa !3
  %this1 = load ptr, ptr %this.addr, align 8
  %pi_ = getelementptr inbounds nuw %"class.boost::detail::shared_count", ptr %this1, i32 0, i32 0
  %0 = load ptr, ptr %r.addr, align 8, !tbaa !3
  %pi_2 = getelementptr inbounds nuw %"class.boost::detail::shared_count", ptr %0, i32 0, i32 0
  %1 = load ptr, ptr %pi_2, align 8, !tbaa !29
  store ptr %1, ptr %pi_, align 8, !tbaa !29
  %2 = load ptr, ptr %r.addr, align 8, !tbaa !3
  %pi_3 = getelementptr inbounds nuw %"class.boost::detail::shared_count", ptr %2, i32 0, i32 0
  store ptr null, ptr %pi_3, align 8, !tbaa !29
  ret void
}

; Function Attrs: mustprogress nounwind uwtable
define linkonce_odr void @_ZN5boost10shared_ptrIN8QuantLib12BasketPayoffEEC2EOS3_(ptr noundef nonnull align 8 dereferenceable(16) %this, ptr noundef nonnull align 8 dereferenceable(16) %r) unnamed_addr #5 comdat align 2 {
entry:
  %this.addr = alloca ptr, align 8
  %r.addr = alloca ptr, align 8
  store ptr %this, ptr %this.addr, align 8, !tbaa !3
  store ptr %r, ptr %r.addr, align 8, !tbaa !3
  %this1 = load ptr, ptr %this.addr, align 8
  %px = getelementptr inbounds nuw %"class.boost::shared_ptr.23", ptr %this1, i32 0, i32 0
  %0 = load ptr, ptr %r.addr, align 8, !tbaa !3
  %px2 = getelementptr inbounds nuw %"class.boost::shared_ptr.23", ptr %0, i32 0, i32 0
  %1 = load ptr, ptr %px2, align 8, !tbaa !16
  store ptr %1, ptr %px, align 8, !tbaa !16
  %pn = getelementptr inbounds nuw %"class.boost::shared_ptr.23", ptr %this1, i32 0, i32 1
  %2 = load ptr, ptr %r.addr, align 8, !tbaa !3
  %pn3 = getelementptr inbounds nuw %"class.boost::shared_ptr.23", ptr %2, i32 0, i32 1
  call void @_ZN5boost6detail12shared_countC2EOS1_(ptr noundef nonnull align 8 dereferenceable(8) %pn, ptr noundef nonnull align 8 dereferenceable(8) %pn3) #17
  %3 = load ptr, ptr %r.addr, align 8, !tbaa !3
  %px4 = getelementptr inbounds nuw %"class.boost::shared_ptr.23", ptr %3, i32 0, i32 0
  store ptr null, ptr %px4, align 8, !tbaa !16
  ret void
}

; Function Attrs: inlinehint mustprogress nounwind uwtable
define linkonce_odr void @_ZN8QuantLib10PathPricerINS_9MultiPathEdEC2Ev(ptr noundef nonnull align 8 dereferenceable(8) %this) unnamed_addr #7 comdat align 2 {
entry:
  %this.addr = alloca ptr, align 8
  store ptr %this, ptr %this.addr, align 8, !tbaa !3
  %this1 = load ptr, ptr %this.addr, align 8
  store ptr getelementptr inbounds inrange(-16, 24) ({ [5 x ptr] }, ptr @_ZTVN8QuantLib10PathPricerINS_9MultiPathEdEE, i32 0, i32 0, i32 2), ptr %this1, align 8, !tbaa !7
  ret void
}

; Function Attrs: mustprogress nounwind uwtable
define void @_ZN8QuantLib23EuropeanMultiPathPricerC2EN5boost10shared_ptrINS_12BasketPayoffEEEd(ptr noundef nonnull align 8 dereferenceable(32) %this, ptr noundef %payoff, double noundef %discount) unnamed_addr #5 align 2 {
entry:
  %this.addr = alloca ptr, align 8
  %payoff.indirect_addr = alloca ptr, align 8
  %discount.addr = alloca double, align 8
  store ptr %this, ptr %this.addr, align 8, !tbaa !3
  store ptr %payoff, ptr %payoff.indirect_addr, align 8, !tbaa !3
  store double %discount, ptr %discount.addr, align 8, !tbaa !9
  %this1 = load ptr, ptr %this.addr, align 8
  call void @_ZN8QuantLib10PathPricerINS_9MultiPathEdEC2Ev(ptr noundef nonnull align 8 dereferenceable(8) %this1) #17
  store ptr getelementptr inbounds inrange(-16, 24) ({ [5 x ptr] }, ptr @_ZTVN8QuantLib23EuropeanMultiPathPricerE, i32 0, i32 0, i32 2), ptr %this1, align 8, !tbaa !7
  %payoff_ = getelementptr inbounds nuw %"class.QuantLib::EuropeanMultiPathPricer", ptr %this1, i32 0, i32 1
  call void @_ZN5boost10shared_ptrIN8QuantLib12BasketPayoffEEC2EOS3_(ptr noundef nonnull align 8 dereferenceable(16) %payoff_, ptr noundef nonnull align 8 dereferenceable(16) %payoff) #17
  %discount_ = getelementptr inbounds nuw %"class.QuantLib::EuropeanMultiPathPricer", ptr %this1, i32 0, i32 2
  %0 = load double, ptr %discount.addr, align 8, !tbaa !9
  store double %0, ptr %discount_, align 8, !tbaa !11
  ret void
}